; Function Attrs: nounwind uwtable
define noalias noundef ptr @Gia_ManSumGenDec(i32 noundef %0) local_unnamed_addr #0 {
  %2 = tail call noalias dereferenceable_or_null(16) ptr @malloc(i64 noundef 16) #23
  %3 = tail call i32 @llvm.umax.i32(i32 %0, i32 15)
  %spec.store.select.i = add i32 %3, 1
  %4 = getelementptr inbounds nuw i8, ptr %2, i64 4
  store i32 0, ptr %4, align 4, !tbaa !41
  store i32 %spec.store.select.i, ptr %2, align 8, !tbaa !43
  %.not.i = icmp eq i32 %spec.store.select.i, 0
  br i1 %.not.i, label %Vec_IntGrow.exit.i, label %.Vec_IntGrow.exit10_crit_edge.i

.Vec_IntGrow.exit10_crit_edge.i:                  ; preds = %1
  %5 = sext i32 %spec.store.select.i to i64
  %6 = shl nsw i64 %5, 2
  %7 = tail call noalias ptr @malloc(i64 noundef %6) #23
  %8 = getelementptr inbounds nuw i8, ptr %2, i64 8
  store ptr %7, ptr %8, align 8, !tbaa !44
  br label %Vec_IntPush.exit33

Vec_IntGrow.exit.i:                               ; preds = %1
  %9 = getelementptr inbounds nuw i8, ptr %2, i64 8
  %10 = tail call noalias dereferenceable_or_null(64) ptr @malloc(i64 noundef 64) #23
  store ptr %10, ptr %9, align 8, !tbaa !44
  store i32 16, ptr %2, align 8, !tbaa !43
  br label %Vec_IntPush.exit33

Vec_IntPush.exit33:                               ; preds = %.Vec_IntGrow.exit10_crit_edge.i, %Vec_IntGrow.exit.i
  %11 = phi ptr [ %8, %.Vec_IntGrow.exit10_crit_edge.i ], [ %9, %Vec_IntGrow.exit.i ]
  %12 = phi ptr [ %7, %.Vec_IntGrow.exit10_crit_edge.i ], [ %10, %Vec_IntGrow.exit.i ]
  store i32 0, ptr %12, align 4, !tbaa !19
  %13 = getelementptr inbounds nuw i8, ptr %12, i64 4
  store i32 0, ptr %13, align 4, !tbaa !19
  %14 = getelementptr inbounds nuw i8, ptr %12, i64 8
  store i32 4, ptr %14, align 4, !tbaa !19
  %15 = load i32, ptr %2, align 8, !tbaa !43
  %16 = icmp eq i32 %15, 3
  br i1 %16, label %Vec_IntGrow.exit.i39, label %Vec_IntPush.exit40

Vec_IntGrow.exit.i39:                             ; preds = %Vec_IntPush.exit33
  %17 = tail call dereferenceable_or_null(64) ptr @realloc(ptr noundef nonnull %12, i64 noundef 64) #22
  store ptr %17, ptr %11, align 8, !tbaa !44
  store i32 16, ptr %2, align 8, !tbaa !43
  br label %Vec_IntPush.exit40

Vec_IntPush.exit40:                               ; preds = %Vec_IntPush.exit33, %Vec_IntGrow.exit.i39
  %.promoted = phi ptr [ %17, %Vec_IntGrow.exit.i39 ], [ %12, %Vec_IntPush.exit33 ]
  store i32 4, ptr %4, align 4, !tbaa !41
  %18 = getelementptr inbounds nuw i8, ptr %.promoted, i64 12
  store i32 12, ptr %18, align 4, !tbaa !19
  %.not48 = icmp slt i32 %0, 4
  br i1 %.not48, label %21, label %.lr.ph

.lr.ph:                                           ; preds = %Vec_IntPush.exit40
  %.promoted50 = load i32, ptr %4, align 4, !tbaa !41
  %.promoted51 = load i32, ptr %2, align 8, !tbaa !43
  %19 = sext i32 %.promoted50 to i64
  br label %22

._crit_edge:                                      ; preds = %Vec_IntPush.exit47
  %20 = trunc nsw i64 %indvars.iv.next to i32
  store i32 %20, ptr %4, align 4, !tbaa !41
  store i32 %46, ptr %2, align 8
  br label %21

21:                                               ; preds = %._crit_edge, %Vec_IntPush.exit40
  ret ptr %2

22:                                               ; preds = %.lr.ph, %Vec_IntPush.exit47
  %indvars.iv = phi i64 [ %19, %.lr.ph ], [ %indvars.iv.next, %Vec_IntPush.exit47 ]
  %23 = phi i32 [ %.promoted51, %.lr.ph ], [ %46, %Vec_IntPush.exit47 ]
  %24 = phi ptr [ %.promoted, %.lr.ph ], [ %47, %Vec_IntPush.exit47 ]
  %.049 = phi i32 [ 4, %.lr.ph ], [ %49, %Vec_IntPush.exit47 ]
  %25 = lshr i32 %.049, 1
  %26 = zext nneg i32 %25 to i64
  %27 = getelementptr inbounds nuw i32, ptr %24, i64 %26
  %28 = load i32, ptr %27, align 4, !tbaa !19
  %29 = sub nsw i32 %.049, %25
  %30 = sext i32 %29 to i64
  %31 = getelementptr inbounds i32, ptr %24, i64 %30
  %32 = load i32, ptr %31, align 4, !tbaa !19
  %33 = shl nuw i32 1, %25
  %34 = shl i32 %33, %29
  %35 = add i32 %28, %34
  %36 = add i32 %35, %32
  %37 = trunc nsw i64 %indvars.iv to i32
  %38 = icmp eq i32 %23, %37
  br i1 %38, label %39, label %Vec_IntPush.exit47

39:                                               ; preds = %22
  %40 = icmp slt i64 %indvars.iv, 16
  br i1 %40, label %Vec_IntGrow.exit.i46, label %42

Vec_IntGrow.exit.i46:                             ; preds = %39
  %41 = tail call dereferenceable_or_null(64) ptr @realloc(ptr noundef nonnull %24, i64 noundef 64) #22
  store ptr %41, ptr %11, align 8, !tbaa !44
  br label %Vec_IntPush.exit47

42:                                               ; preds = %39
  %43 = shl nuw nsw i64 %indvars.iv, 3
  %44 = tail call ptr @realloc(ptr noundef nonnull %24, i64 noundef %43) #22
  store ptr %44, ptr %11, align 8, !tbaa !44
  %indvars.iv.tr = trunc i64 %indvars.iv to i32
  %45 = shl i32 %indvars.iv.tr, 1
  br label %Vec_IntPush.exit47

Vec_IntPush.exit47:                               ; preds = %22, %Vec_IntGrow.exit.i46, %42
  %46 = phi i32 [ %45, %42 ], [ 16, %Vec_IntGrow.exit.i46 ], [ %23, %22 ]
  %47 = phi ptr [ %44, %42 ], [ %41, %Vec_IntGrow.exit.i46 ], [ %24, %22 ]
  %indvars.iv.next = add nsw i64 %indvars.iv, 1
  %48 = getelementptr inbounds i32, ptr %47, i64 %indvars.iv
  store i32 %36, ptr %48, align 4, !tbaa !19
  %49 = add nuw i32 %.049, 1
  %exitcond.not = icmp eq i32 %.049, %0
  br i1 %exitcond.not, label %._crit_edge, label %22, !llvm.loop !116
}